target datalayout = "e-m:e-p270:32:32-p271:32:32-p272:64:64-i64:64-i128:128-f80:128-n8:16:32:64-S128"
target triple = "x86_64-pc-linux-gnu"

%class.svector = type { %class.vector.0 }
%class.vector.0 = type { ptr }
%class.vector.62 = type { ptr }
%"class.datalog::tr_infrastructure<datalog::relation_traits>::base_ancestor" = type <{ ptr, ptr, %"class.datalog::relation_signature", i32, [4 x i8] }>
%"class.datalog::relation_signature" = type { %"class.datalog::tr_infrastructure<datalog::relation_traits>::signature_base" }
%"class.datalog::tr_infrastructure<datalog::relation_traits>::signature_base" = type { %class.ptr_vector.61 }
%class.ptr_vector.61 = type { %class.vector.62 }
%"struct.datalog::uint_set2" = type { %class.uint_set, %class.uint_set }
%class.uint_set = type { %class.svector }
%"class.datalog::bound_relation" = type { %"class.datalog::vector_relation", %class.svector.65 }
%"class.datalog::vector_relation" = type { %"class.datalog::relation_base.base", %"struct.datalog::uint_set2", ptr, i8, %class.union_find_default_ctx, ptr }
%"class.datalog::relation_base.base" = type { %"class.datalog::tr_infrastructure<datalog::relation_traits>::base_ancestor.base" }
%"class.datalog::tr_infrastructure<datalog::relation_traits>::base_ancestor.base" = type <{ ptr, ptr, %"class.datalog::relation_signature", i32 }>
%class.union_find_default_ctx = type { %class.trail_stack }
%class.trail_stack = type { %class.ptr_vector.63, %class.svector, %class.region }
%class.ptr_vector.63 = type { %class.vector.64 }
%class.vector.64 = type { ptr }
%class.region = type { ptr, ptr, ptr, ptr, ptr }
%class.svector.65 = type { %class.vector.66 }
%class.vector.66 = type { ptr }
%class.scoped_ptr = type { ptr }
%class.ref_vector_core = type { %class.ref_manager_wrapper, %class.ptr_vector.69 }
%class.ref_manager_wrapper = type { ptr }
%class.ptr_vector.69 = type { %class.vector.70 }
%class.vector.70 = type { ptr }

@_ZTIN7datalog21bound_relation_pluginE = hidden constant { ptr, ptr, ptr } { ptr getelementptr inbounds (ptr, ptr @_ZTVN10__cxxabiv120__si_class_type_infoE, i64 2), ptr @_ZTSN7datalog21bound_relation_pluginE, ptr @_ZTIN7datalog15relation_pluginE }, align 8
@_ZN7datalog14bound_relationC1ERNS_21bound_relation_pluginERKNS_18relation_signatureEb = hidden unnamed_addr alias void (ptr, ptr, ptr, i1), ptr @_ZN7datalog14bound_relationC2ERNS_21bound_relation_pluginERKNS_18relation_signatureEb

; Function Attrs: mustprogress nounwind uwtable
define linkonce_odr hidden noundef nonnull align 8 dereferenceable(8) ptr @_ZNK6vectorIP3appLb0EjEixEj(ptr noundef nonnull align 8 dereferenceable(8) %0, i32 noundef %1) #7 comdat align 2 {
  %3 = alloca ptr, align 8
  %4 = alloca i32, align 4
  store ptr %0, ptr %3, align 8, !tbaa !479
  store i32 %1, ptr %4, align 4, !tbaa !54
  %5 = load ptr, ptr %3, align 8
  %6 = getelementptr inbounds nuw %class.vector.70, ptr %5, i32 0, i32 0
  %7 = load ptr, ptr %6, align 8, !tbaa !481
  %8 = load i32, ptr %4, align 4, !tbaa !54
  %9 = zext i32 %8 to i64
  %10 = getelementptr inbounds nuw ptr, ptr %7, i64 %9
  ret ptr %10
}

; Function Attrs: mustprogress uwtable
define linkonce_odr hidden noundef ptr @_ZNK15ref_vector_coreI3app19ref_manager_wrapperIS0_11ast_managerEE3getEj(ptr noundef nonnull align 8 dereferenceable(16) %0, i32 noundef %1) #4 comdat align 2 {
  %3 = alloca ptr, align 8
  %4 = alloca i32, align 4
  store ptr %0, ptr %3, align 8, !tbaa !192
  store i32 %1, ptr %4, align 4, !tbaa !54
  %5 = load ptr, ptr %3, align 8
  %6 = getelementptr inbounds nuw %class.ref_vector_core, ptr %5, i32 0, i32 1
  %7 = load i32, ptr %4, align 4, !tbaa !54
  %8 = call noundef nonnull align 8 dereferenceable(8) ptr @_ZNK6vectorIP3appLb0EjEixEj(ptr noundef nonnull align 8 dereferenceable(8) %6, i32 noundef %7)
  %9 = load ptr, ptr %8, align 8, !tbaa !104
  ret ptr %9
}

; Function Attrs: mustprogress nounwind uwtable
define linkonce_odr hidden noundef i32 @_ZNK6vectorIP3appLb0EjE4sizeEv(ptr noundef nonnull align 8 dereferenceable(8) %0) #7 comdat align 2 {
  %2 = alloca i32, align 4
  %3 = alloca ptr, align 8
  store ptr %0, ptr %3, align 8, !tbaa !479
  %4 = load ptr, ptr %3, align 8
  %5 = getelementptr inbounds nuw %class.vector.70, ptr %4, i32 0, i32 0
  %6 = load ptr, ptr %5, align 8, !tbaa !481
  %7 = icmp eq ptr %6, null
  br i1 %7, label %8, label %9

8:                                                ; preds = %1
  store i32 0, ptr %2, align 4
  br label %14

9:                                                ; preds = %1
  %10 = getelementptr inbounds nuw %class.vector.70, ptr %4, i32 0, i32 0
  %11 = load ptr, ptr %10, align 8, !tbaa !481
  %12 = getelementptr inbounds i32, ptr %11, i64 -1
  %13 = load i32, ptr %12, align 4, !tbaa !54
  store i32 %13, ptr %2, align 4
  br label %14

14:                                               ; preds = %9, %8
  %15 = load i32, ptr %2, align 4
  ret i32 %15
}

; Function Attrs: mustprogress nounwind uwtable
define linkonce_odr hidden noundef nonnull align 8 dereferenceable(36) ptr @_ZNK7datalog17tr_infrastructureINS_15relation_traitsEE13base_ancestor10get_pluginEv(ptr noundef nonnull align 8 dereferenceable(28) %0) #7 comdat align 2 {
  %2 = alloca ptr, align 8
  store ptr %0, ptr %2, align 8, !tbaa !69
  %3 = load ptr, ptr %2, align 8
  %4 = getelementptr inbounds nuw %"class.datalog::tr_infrastructure<datalog::relation_traits>::base_ancestor", ptr %3, i32 0, i32 1
  %5 = load ptr, ptr %4, align 8, !tbaa !71
  ret ptr %5
}

; Function Attrs: mustprogress nounwind uwtable
define linkonce_odr hidden noundef nonnull align 8 dereferenceable(8) ptr @_ZN10scoped_ptrIN7datalog17tr_infrastructureINS0_15relation_traitsEE10mutator_fnEEdeEv(ptr noundef nonnull align 8 dereferenceable(8) %0) #7 comdat align 2 {
  %2 = alloca ptr, align 8
  store ptr %0, ptr %2, align 8, !tbaa !194
  %3 = load ptr, ptr %2, align 8
  %4 = getelementptr inbounds nuw %class.scoped_ptr, ptr %3, i32 0, i32 0
  %5 = load ptr, ptr %4, align 8, !tbaa !198
  ret ptr %5
}

; Function Attrs: mustprogress nounwind uwtable
define linkonce_odr hidden void @_ZN10scoped_ptrIN7datalog17tr_infrastructureINS0_15relation_traitsEE10mutator_fnEEC2EPS4_(ptr noundef nonnull align 8 dereferenceable(8) %0, ptr noundef %1) unnamed_addr #7 comdat align 2 {
  %3 = alloca ptr, align 8
  %4 = alloca ptr, align 8
  store ptr %0, ptr %3, align 8, !tbaa !194
  store ptr %1, ptr %4, align 8, !tbaa !196
  %5 = load ptr, ptr %3, align 8
  %6 = getelementptr inbounds nuw %class.scoped_ptr, ptr %5, i32 0, i32 0
  %7 = load ptr, ptr %4, align 8, !tbaa !196
  store ptr %7, ptr %6, align 8, !tbaa !198
  ret void
}

; Function Attrs: mustprogress uwtable
define linkonce_odr hidden noundef ptr @_ZNK7datalog13relation_factixEj(ptr noundef nonnull align 8 dereferenceable(16) %0, i32 noundef %1) #4 comdat align 2 {
  %3 = alloca ptr, align 8
  %4 = alloca i32, align 4
  store ptr %0, ptr %3, align 8, !tbaa !189
  store i32 %1, ptr %4, align 4, !tbaa !54
  %5 = load ptr, ptr %3, align 8
  %6 = load i32, ptr %4, align 4, !tbaa !54
  %7 = call noundef ptr @_ZNK15ref_vector_coreI3app19ref_manager_wrapperIS0_11ast_managerEE3getEj(ptr noundef nonnull align 8 dereferenceable(16) %5, i32 noundef %6)
  ret ptr %7
}

; Function Attrs: mustprogress uwtable
define linkonce_odr hidden noundef i32 @_ZNK15ref_vector_coreI3app19ref_manager_wrapperIS0_11ast_managerEE4sizeEv(ptr noundef nonnull align 8 dereferenceable(16) %0) #4 comdat align 2 {
  %2 = alloca ptr, align 8
  store ptr %0, ptr %2, align 8, !tbaa !192
  %3 = load ptr, ptr %2, align 8
  %4 = getelementptr inbounds nuw %class.ref_vector_core, ptr %3, i32 0, i32 1
  %5 = call noundef i32 @_ZNK6vectorIP3appLb0EjE4sizeEv(ptr noundef nonnull align 8 dereferenceable(8) %4)
  ret i32 %5
}

; Function Attrs: mustprogress nounwind uwtable
define linkonce_odr hidden noundef nonnull align 8 dereferenceable(8) ptr @_ZNK7datalog17tr_infrastructureINS_15relation_traitsEE13base_ancestor13get_signatureEv(ptr noundef nonnull align 8 dereferenceable(28) %0) #7 comdat align 2 {
  %2 = alloca ptr, align 8
  store ptr %0, ptr %2, align 8, !tbaa !69
  %3 = load ptr, ptr %2, align 8
  %4 = getelementptr inbounds nuw %"class.datalog::tr_infrastructure<datalog::relation_traits>::base_ancestor", ptr %3, i32 0, i32 2
  ret ptr %4
}

; Function Attrs: mustprogress uwtable
define hidden noundef nonnull align 8 dereferenceable(128) ptr @_ZNK7datalog14bound_relation10get_pluginEv(ptr noundef nonnull align 8 dereferenceable(136) %0) #4 align 2 {
  %2 = alloca ptr, align 8
  store ptr %0, ptr %2, align 8, !tbaa !138
  %3 = load ptr, ptr %2, align 8
  %4 = call noundef nonnull align 8 dereferenceable(36) ptr @_ZNK7datalog17tr_infrastructureINS_15relation_traitsEE13base_ancestor10get_pluginEv(ptr noundef nonnull align 8 dereferenceable(28) %3)
  %5 = call ptr @__dynamic_cast(ptr %4, ptr @_ZTIN7datalog15relation_pluginE, ptr @_ZTIN7datalog21bound_relation_pluginE, i64 0) #3
  %6 = icmp eq ptr %5, null
  br i1 %6, label %7, label %8

7:                                                ; preds = %1
  call void @__cxa_bad_cast() #21
  unreachable

8:                                                ; preds = %1
  ret ptr %5
}

; Function Attrs: mustprogress uwtable
define hidden void @_ZN7datalog14bound_relation8add_factERKNS_13relation_factE(ptr noundef nonnull align 8 dereferenceable(136) %0, ptr noundef nonnull align 8 dereferenceable(16) %1) unnamed_addr #4 align 2 personality ptr @__gxx_personality_v0 {
  %3 = alloca ptr, align 8
  %4 = alloca ptr, align 8
  %5 = alloca %"class.datalog::bound_relation", align 8
  %6 = alloca i32, align 4
  %7 = alloca ptr, align 8
  %8 = alloca i32, align 4
  %9 = alloca %class.scoped_ptr, align 8
  %10 = alloca ptr, align 8
  store ptr %0, ptr %3, align 8, !tbaa !138
  store ptr %1, ptr %4, align 8, !tbaa !189
  %11 = load ptr, ptr %3, align 8
  call void @llvm.lifetime.start.p0(i64 136, ptr %5) #3
  %12 = call noundef nonnull align 8 dereferenceable(128) ptr @_ZNK7datalog14bound_relation10get_pluginEv(ptr noundef nonnull align 8 dereferenceable(136) %11)
  %13 = call noundef nonnull align 8 dereferenceable(8) ptr @_ZNK7datalog17tr_infrastructureINS_15relation_traitsEE13base_ancestor13get_signatureEv(ptr noundef nonnull align 8 dereferenceable(28) %11)
  call void @_ZN7datalog14bound_relationC1ERNS_21bound_relation_pluginERKNS_18relation_signatureEb(ptr noundef nonnull align 8 dereferenceable(136) %5, ptr noundef nonnull align 8 dereferenceable(128) %12, ptr noundef nonnull align 8 dereferenceable(8) %13, i1 noundef zeroext false)
  call void @llvm.lifetime.start.p0(i64 4, ptr %6) #3
  store i32 0, ptr %6, align 4, !tbaa !54
  br label %14

14:                                               ; preds = %45, %2
  %15 = load i32, ptr %6, align 4, !tbaa !54
  %16 = load ptr, ptr %4, align 8, !tbaa !189
  %17 = invoke noundef i32 @_ZNK15ref_vector_coreI3app19ref_manager_wrapperIS0_11ast_managerEE4sizeEv(ptr noundef nonnull align 8 dereferenceable(16) %16)
          to label %18 unwind label %21

18:                                               ; preds = %14
  %19 = icmp ult i32 %15, %17
  br i1 %19, label %25, label %20

20:                                               ; preds = %18
  call void @llvm.lifetime.end.p0(i64 4, ptr %6) #3
  br label %62

21:                                               ; preds = %14
  %22 = landingpad { ptr, i32 }
          cleanup
  %23 = extractvalue { ptr, i32 } %22, 0
  store ptr %23, ptr %7, align 8
  %24 = extractvalue { ptr, i32 } %22, 1
  store i32 %24, ptr %8, align 4
  br label %61

25:                                               ; preds = %18
  call void @llvm.lifetime.start.p0(i64 8, ptr %9) #3
  %26 = invoke noundef nonnull align 8 dereferenceable(128) ptr @_ZNK7datalog14bound_relation10get_pluginEv(ptr noundef nonnull align 8 dereferenceable(136) %11)
          to label %27 unwind label %48

27:                                               ; preds = %25
  call void @llvm.lifetime.start.p0(i64 8, ptr %10) #3
  %28 = load ptr, ptr %4, align 8, !tbaa !189
  %29 = load i32, ptr %6, align 4, !tbaa !54
  %30 = invoke noundef ptr @_ZNK7datalog13relation_factixEj(ptr noundef nonnull align 8 dereferenceable(16) %28, i32 noundef %29)
          to label %31 unwind label %52

31:                                               ; preds = %27
  store ptr %30, ptr %10, align 8, !tbaa !104
  %32 = load i32, ptr %6, align 4, !tbaa !54
  %33 = load ptr, ptr %26, align 8, !tbaa !10
  %34 = getelementptr inbounds ptr, ptr %33, i64 18
  %35 = load ptr, ptr %34, align 8
  %36 = invoke noundef ptr %35(ptr noundef nonnull align 8 dereferenceable(128) %26, ptr noundef nonnull align 8 dereferenceable(28) %5, ptr noundef nonnull align 8 dereferenceable(8) %10, i32 noundef %32)
          to label %37 unwind label %52

37:                                               ; preds = %31
  invoke void @_ZN10scoped_ptrIN7datalog17tr_infrastructureINS0_15relation_traitsEE10mutator_fnEEC2EPS4_(ptr noundef nonnull align 8 dereferenceable(8) %9, ptr noundef %36)
          to label %38 unwind label %52

38:                                               ; preds = %37
  call void @llvm.lifetime.end.p0(i64 8, ptr %10) #3
  %39 = invoke noundef nonnull align 8 dereferenceable(8) ptr @_ZN10scoped_ptrIN7datalog17tr_infrastructureINS0_15relation_traitsEE10mutator_fnEEdeEv(ptr noundef nonnull align 8 dereferenceable(8) %9)
          to label %40 unwind label %56

40:                                               ; preds = %38
  %41 = load ptr, ptr %39, align 8, !tbaa !10
  %42 = getelementptr inbounds ptr, ptr %41, i64 2
  %43 = load ptr, ptr %42, align 8
  invoke void %43(ptr noundef nonnull align 8 dereferenceable(8) %39, ptr noundef nonnull align 8 dereferenceable(28) %5)
          to label %44 unwind label %56

44:                                               ; preds = %40
  call void @_ZN10scoped_ptrIN7datalog17tr_infrastructureINS0_15relation_traitsEE10mutator_fnEED2Ev(ptr noundef nonnull align 8 dereferenceable(8) %9) #3
  call void @llvm.lifetime.end.p0(i64 8, ptr %9) #3
  br label %45

45:                                               ; preds = %44
  %46 = load i32, ptr %6, align 4, !tbaa !54
  %47 = add i32 %46, 1
  store i32 %47, ptr %6, align 4, !tbaa !54
  br label %14, !llvm.loop !191

48:                                               ; preds = %25
  %49 = landingpad { ptr, i32 }
          cleanup
  %50 = extractvalue { ptr, i32 } %49, 0
  store ptr %50, ptr %7, align 8
  %51 = extractvalue { ptr, i32 } %49, 1
  store i32 %51, ptr %8, align 4
  br label %60

52:                                               ; preds = %37, %31, %27
  %53 = landingpad { ptr, i32 }
          cleanup
  %54 = extractvalue { ptr, i32 } %53, 0
  store ptr %54, ptr %7, align 8
  %55 = extractvalue { ptr, i32 } %53, 1
  store i32 %55, ptr %8, align 4
  call void @llvm.lifetime.end.p0(i64 8, ptr %10) #3
  br label %60

56:                                               ; preds = %40, %38
  %57 = landingpad { ptr, i32 }
          cleanup
  %58 = extractvalue { ptr, i32 } %57, 0
  store ptr %58, ptr %7, align 8
  %59 = extractvalue { ptr, i32 } %57, 1
  store i32 %59, ptr %8, align 4
  call void @_ZN10scoped_ptrIN7datalog17tr_infrastructureINS0_15relation_traitsEE10mutator_fnEED2Ev(ptr noundef nonnull align 8 dereferenceable(8) %9) #3
  br label %60

60:                                               ; preds = %56, %52, %48
  call void @llvm.lifetime.end.p0(i64 8, ptr %9) #3
  br label %61

61:                                               ; preds = %60, %21
  call void @llvm.lifetime.end.p0(i64 4, ptr %6) #3
  br label %68

62:                                               ; preds = %20
  invoke void @_ZN7datalog15vector_relationINS_9uint_set2ENS_21bound_relation_helperEE8mk_unionERKS3_PS3_b(ptr noundef nonnull align 8 dereferenceable(128) %11, ptr noundef nonnull align 8 dereferenceable(128) %5, ptr noundef null, i1 noundef zeroext false)
          to label %63 unwind label %64

63:                                               ; preds = %62
  call void @_ZN7datalog14bound_relationD2Ev(ptr noundef nonnull align 8 dereferenceable(136) %5) #3
  call void @llvm.lifetime.end.p0(i64 136, ptr %5) #3
  ret void

64:                                               ; preds = %62
  %65 = landingpad { ptr, i32 }
          cleanup
  %66 = extractvalue { ptr, i32 } %65, 0
  store ptr %66, ptr %7, align 8
  %67 = extractvalue { ptr, i32 } %65, 1
  store i32 %67, ptr %8, align 4
  br label %68

68:                                               ; preds = %64, %61
  call void @_ZN7datalog14bound_relationD2Ev(ptr noundef nonnull align 8 dereferenceable(136) %5) #3
  call void @llvm.lifetime.end.p0(i64 136, ptr %5) #3
  br label %69

69:                                               ; preds = %68
  %70 = load ptr, ptr %7, align 8
  %71 = load i32, ptr %8, align 4
  %72 = insertvalue { ptr, i32 } poison, ptr %70, 0
  %73 = insertvalue { ptr, i32 } %72, i32 %71, 1
  resume { ptr, i32 } %73
}