; Function Attrs: mustprogress uwtable
define hidden void @_ZN7datalog14bound_relation8add_factERKNS_13relation_factE(ptr noundef nonnull align 8 dereferenceable(136) %0, ptr noundef nonnull readonly align 8 captures(none) dereferenceable(16) %1) unnamed_addr #3 align 2 personality ptr @__gxx_personality_v0 {
  %3 = alloca %"class.datalog::bound_relation", align 8
  %4 = alloca %class.scoped_ptr, align 8
  %5 = alloca ptr, align 8
  call void @llvm.lifetime.start.p0(i64 136, ptr nonnull %3) #24
  %6 = getelementptr inbounds nuw i8, ptr %0, i64 8
  %7 = load ptr, ptr %6, align 8, !tbaa !54
  %8 = tail call ptr @__dynamic_cast(ptr nonnull %7, ptr nonnull @_ZTIN7datalog15relation_pluginE, ptr nonnull @_ZTIN7datalog21bound_relation_pluginE, i64 0) #24
  %9 = icmp eq ptr %8, null
  br i1 %9, label %10, label %_ZNK7datalog14bound_relation10get_pluginEv.exit

10:                                               ; preds = %2
  tail call void @__cxa_bad_cast() #25
  unreachable

_ZNK7datalog14bound_relation10get_pluginEv.exit:  ; preds = %2
  %11 = getelementptr inbounds nuw i8, ptr %0, i64 16
  call void @_ZN7datalog14bound_relationC2ERNS_21bound_relation_pluginERKNS_18relation_signatureEb(ptr noundef nonnull align 8 dereferenceable(136) %3, ptr noundef nonnull align 8 dereferenceable(128) %8, ptr noundef nonnull align 8 dereferenceable(8) %11, i1 noundef zeroext false)
  %12 = getelementptr inbounds nuw i8, ptr %1, i64 8
  br label %13

13:                                               ; preds = %_ZN10scoped_ptrIN7datalog17tr_infrastructureINS0_15relation_traitsEE10mutator_fnEED2Ev.exit, %_ZNK7datalog14bound_relation10get_pluginEv.exit
  %indvars.iv = phi i64 [ %indvars.iv.next, %_ZN10scoped_ptrIN7datalog17tr_infrastructureINS0_15relation_traitsEE10mutator_fnEED2Ev.exit ], [ 0, %_ZNK7datalog14bound_relation10get_pluginEv.exit ]
  %14 = load ptr, ptr %12, align 8, !tbaa !215
  %15 = icmp eq ptr %14, null
  br i1 %15, label %_ZNK15ref_vector_coreI3app19ref_manager_wrapperIS0_11ast_managerEE4sizeEv.exit, label %16

16:                                               ; preds = %13
  %17 = getelementptr inbounds i8, ptr %14, i64 -4
  %18 = load i32, ptr %17, align 4, !tbaa !40
  %19 = zext i32 %18 to i64
  br label %_ZNK15ref_vector_coreI3app19ref_manager_wrapperIS0_11ast_managerEE4sizeEv.exit

_ZNK15ref_vector_coreI3app19ref_manager_wrapperIS0_11ast_managerEE4sizeEv.exit: ; preds = %16, %13
  %.0.i.i = phi i64 [ %19, %16 ], [ 0, %13 ]
  %20 = icmp samesign ult i64 %indvars.iv, %.0.i.i
  br i1 %20, label %22, label %21

21:                                               ; preds = %_ZNK15ref_vector_coreI3app19ref_manager_wrapperIS0_11ast_managerEE4sizeEv.exit
  invoke void @_ZN7datalog15vector_relationINS_9uint_set2ENS_21bound_relation_helperEE8mk_unionERKS3_PS3_b(ptr noundef nonnull align 8 dereferenceable(128) %0, ptr noundef nonnull align 8 dereferenceable(128) %3, ptr noundef null, i1 noundef zeroext false)
          to label %52 unwind label %60

22:                                               ; preds = %_ZNK15ref_vector_coreI3app19ref_manager_wrapperIS0_11ast_managerEE4sizeEv.exit
  call void @llvm.lifetime.start.p0(i64 8, ptr nonnull %4) #24
  %23 = load ptr, ptr %6, align 8, !tbaa !54
  %24 = call ptr @__dynamic_cast(ptr nonnull %23, ptr nonnull @_ZTIN7datalog15relation_pluginE, ptr nonnull @_ZTIN7datalog21bound_relation_pluginE, i64 0) #24
  %25 = icmp eq ptr %24, null
  br i1 %25, label %26, label %27

26:                                               ; preds = %22
  invoke void @__cxa_bad_cast() #25
          to label %.noexc unwind label %45

.noexc:                                           ; preds = %26
  unreachable

27:                                               ; preds = %22
  call void @llvm.lifetime.start.p0(i64 8, ptr nonnull %5) #24
  %28 = getelementptr inbounds nuw ptr, ptr %14, i64 %indvars.iv
  %29 = load ptr, ptr %28, align 8, !tbaa !218
  store ptr %29, ptr %5, align 8, !tbaa !218
  %30 = load ptr, ptr %24, align 8, !tbaa !17
  %31 = getelementptr inbounds nuw i8, ptr %30, i64 144
  %32 = load ptr, ptr %31, align 8
  %33 = trunc nuw i64 %indvars.iv to i32
  %34 = invoke noundef ptr %32(ptr noundef nonnull align 8 dereferenceable(128) %24, ptr noundef nonnull align 8 dereferenceable(28) %3, ptr noundef nonnull align 8 dereferenceable(8) %5, i32 noundef %33)
          to label %35 unwind label %47

35:                                               ; preds = %27
  store ptr %34, ptr %4, align 8, !tbaa !219
  call void @llvm.lifetime.end.p0(i64 8, ptr nonnull %5) #24
  %36 = load ptr, ptr %34, align 8, !tbaa !17
  %37 = getelementptr inbounds nuw i8, ptr %36, i64 16
  %38 = load ptr, ptr %37, align 8
  invoke void %38(ptr noundef nonnull align 8 dereferenceable(8) %34, ptr noundef nonnull align 8 dereferenceable(28) %3)
          to label %39 unwind label %49

39:                                               ; preds = %35
  %40 = load ptr, ptr %34, align 8, !tbaa !17
  %41 = load ptr, ptr %40, align 8
  call void %41(ptr noundef nonnull align 8 dereferenceable(8) %34) #24
  invoke void @_ZN6memory10deallocateEPv(ptr noundef nonnull %34)
          to label %_ZN10scoped_ptrIN7datalog17tr_infrastructureINS0_15relation_traitsEE10mutator_fnEED2Ev.exit unwind label %42

42:                                               ; preds = %39
  %43 = landingpad { ptr, i32 }
          catch ptr null
  %44 = extractvalue { ptr, i32 } %43, 0
  call void @__clang_call_terminate(ptr %44) #26
  unreachable

_ZN10scoped_ptrIN7datalog17tr_infrastructureINS0_15relation_traitsEE10mutator_fnEED2Ev.exit: ; preds = %39
  call void @llvm.lifetime.end.p0(i64 8, ptr nonnull %4) #24
  %indvars.iv.next = add nuw nsw i64 %indvars.iv, 1
  br label %13, !llvm.loop !222

45:                                               ; preds = %26
  %46 = landingpad { ptr, i32 }
          cleanup
  br label %51

47:                                               ; preds = %27
  %48 = landingpad { ptr, i32 }
          cleanup
  call void @llvm.lifetime.end.p0(i64 8, ptr nonnull %5) #24
  br label %51

49:                                               ; preds = %35
  %50 = landingpad { ptr, i32 }
          cleanup
  call void @_ZN10scoped_ptrIN7datalog17tr_infrastructureINS0_15relation_traitsEE10mutator_fnEED2Ev(ptr noundef nonnull align 8 dereferenceable(8) %4) #24
  br label %51

51:                                               ; preds = %49, %47, %45
  %.pn = phi { ptr, i32 } [ %50, %49 ], [ %48, %47 ], [ %46, %45 ]
  call void @llvm.lifetime.end.p0(i64 8, ptr nonnull %4) #24
  br label %62

52:                                               ; preds = %21
  store ptr getelementptr inbounds nuw inrange(-16, 232) (i8, ptr @_ZTVN7datalog14bound_relationE, i64 16), ptr %3, align 8, !tbaa !17
  %53 = getelementptr inbounds nuw i8, ptr %3, i64 128
  %54 = load ptr, ptr %53, align 8, !tbaa !166
  %.not.i.i.i = icmp eq ptr %54, null
  br i1 %.not.i.i.i, label %_ZN7datalog14bound_relationD2Ev.exit, label %55

55:                                               ; preds = %52
  %56 = getelementptr inbounds i8, ptr %54, i64 -8
  invoke void @_ZN6memory10deallocateEPv(ptr noundef nonnull %56)
          to label %_ZN7datalog14bound_relationD2Ev.exit unwind label %57

57:                                               ; preds = %55
  %58 = landingpad { ptr, i32 }
          catch ptr null
  %59 = extractvalue { ptr, i32 } %58, 0
  call void @__clang_call_terminate(ptr %59) #26
  unreachable

_ZN7datalog14bound_relationD2Ev.exit:             ; preds = %52, %55
  call void @_ZN7datalog15vector_relationINS_9uint_set2ENS_21bound_relation_helperEED2Ev(ptr noundef nonnull align 8 dereferenceable(136) %3) #24
  call void @llvm.lifetime.end.p0(i64 136, ptr nonnull %3) #24
  ret void

60:                                               ; preds = %21
  %61 = landingpad { ptr, i32 }
          cleanup
  br label %62

62:                                               ; preds = %51, %60
  %.pn.pn.pn = phi { ptr, i32 } [ %61, %60 ], [ %.pn, %51 ]
  call void @_ZN7datalog14bound_relationD2Ev(ptr noundef nonnull align 8 dereferenceable(136) %3) #24
  call void @llvm.lifetime.end.p0(i64 136, ptr nonnull %3) #24
  resume { ptr, i32 } %.pn.pn.pn
}